target datalayout = "e-m:e-p270:32:32-p271:32:32-p272:64:64-i64:64-i128:128-f80:128-n8:16:32:64-S128"
target triple = "x86_64-pc-linux-gnu"

%struct.X11InputMethodIDs = type { ptr }
%union.jvalue = type { i64 }
%struct._X11InputMethodData = type { ptr, ptr, ptr, ptr, ptr, ptr, ptr, i32 }
%struct.XKeyEvent = type { i32, i64, i32, ptr, i64, i64, i64, i64, i32, i32, i32, i32, i32, i32, i32 }
%struct._X11InputMethodGRefNode = type { ptr, ptr }
%struct.JNINativeInterface_ = type { ptr, ptr, ptr, ptr, ptr, ptr, ptr, ptr, ptr, ptr, ptr, ptr, ptr, ptr, ptr, ptr, ptr, ptr, ptr, ptr, ptr, ptr, ptr, ptr, ptr, ptr, ptr, ptr, ptr, ptr, ptr, ptr, ptr, ptr, ptr, ptr, ptr, ptr, ptr, ptr, ptr, ptr, ptr, ptr, ptr, ptr, ptr, ptr, ptr, ptr, ptr, ptr, ptr, ptr, ptr, ptr, ptr, ptr, ptr, ptr, ptr, ptr, ptr, ptr, ptr, ptr, ptr, ptr, ptr, ptr, ptr, ptr, ptr, ptr, ptr, ptr, ptr, ptr, ptr, ptr, ptr, ptr, ptr, ptr, ptr, ptr, ptr, ptr, ptr, ptr, ptr, ptr, ptr, ptr, ptr, ptr, ptr, ptr, ptr, ptr, ptr, ptr, ptr, ptr, ptr, ptr, ptr, ptr, ptr, ptr, ptr, ptr, ptr, ptr, ptr, ptr, ptr, ptr, ptr, ptr, ptr, ptr, ptr, ptr, ptr, ptr, ptr, ptr, ptr, ptr, ptr, ptr, ptr, ptr, ptr, ptr, ptr, ptr, ptr, ptr, ptr, ptr, ptr, ptr, ptr, ptr, ptr, ptr, ptr, ptr, ptr, ptr, ptr, ptr, ptr, ptr, ptr, ptr, ptr, ptr, ptr, ptr, ptr, ptr, ptr, ptr, ptr, ptr, ptr, ptr, ptr, ptr, ptr, ptr, ptr, ptr, ptr, ptr, ptr, ptr, ptr, ptr, ptr, ptr, ptr, ptr, ptr, ptr, ptr, ptr, ptr, ptr, ptr, ptr, ptr, ptr, ptr, ptr, ptr, ptr, ptr, ptr, ptr, ptr, ptr, ptr, ptr, ptr, ptr, ptr, ptr, ptr, ptr, ptr, ptr, ptr, ptr, ptr, ptr, ptr, ptr, ptr, ptr, ptr, ptr, ptr, ptr, ptr, ptr, ptr, ptr, ptr, ptr, ptr, ptr }

@x11InputMethodGRefListHead = hidden global ptr null, align 8
@currentX11InputMethodInstance = hidden global ptr null, align 8
@jvm = external global ptr, align 8
@awt_x11inputmethod_lookupString.composing = internal global i8 0, align 1
@.str = private unnamed_addr constant [22 x i8] c"dispatchCommittedText\00", align 1
@.str.1 = private unnamed_addr constant [23 x i8] c"(Ljava/lang/String;J)V\00", align 1
@x11InputMethodIDs = hidden global %struct.X11InputMethodIDs zeroinitializer, align 8
@X11im = internal global ptr null, align 8
@.str.11 = private unnamed_addr constant [10 x i8] c"flushText\00", align 1
@.str.12 = private unnamed_addr constant [4 x i8] c"()V\00", align 1

; Function Attrs: nounwind uwtable
define internal void @setX11InputMethodData(ptr noundef %0, ptr noundef %1, ptr noundef %2) #0 {
  %4 = alloca ptr, align 8
  %5 = alloca ptr, align 8
  %6 = alloca ptr, align 8
  store ptr %0, ptr %4, align 8
  store ptr %1, ptr %5, align 8
  store ptr %2, ptr %6, align 8
  %7 = load ptr, ptr %4, align 8
  %8 = load ptr, ptr %7, align 8
  %9 = getelementptr inbounds %struct.JNINativeInterface_, ptr %8, i32 0, i32 110
  %10 = load ptr, ptr %9, align 8
  %11 = load ptr, ptr %4, align 8
  %12 = load ptr, ptr %5, align 8
  %13 = load ptr, ptr @x11InputMethodIDs, align 8
  %14 = load ptr, ptr %6, align 8
  %15 = ptrtoint ptr %14 to i64
  call void %10(ptr noundef %11, ptr noundef %12, ptr noundef %13, i64 noundef %15)
  ret void
}

; Function Attrs: nounwind uwtable
define internal ptr @getX11InputMethodData(ptr noundef %0, ptr noundef %1) #0 {
  %3 = alloca ptr, align 8
  %4 = alloca ptr, align 8
  %5 = alloca ptr, align 8
  %6 = alloca ptr, align 8
  %7 = alloca %union.jvalue, align 8
  store ptr %0, ptr %4, align 8
  store ptr %1, ptr %5, align 8
  %8 = load ptr, ptr %4, align 8
  %9 = load ptr, ptr %8, align 8
  %10 = getelementptr inbounds %struct.JNINativeInterface_, ptr %9, i32 0, i32 101
  %11 = load ptr, ptr %10, align 8
  %12 = load ptr, ptr %4, align 8
  %13 = load ptr, ptr %5, align 8
  %14 = load ptr, ptr @x11InputMethodIDs, align 8
  %15 = call i64 %11(ptr noundef %12, ptr noundef %13, ptr noundef %14)
  %16 = inttoptr i64 %15 to ptr
  store ptr %16, ptr %6, align 8
  %17 = load ptr, ptr @X11im, align 8
  %18 = icmp eq ptr %17, null
  br i1 %18, label %19, label %44

19:                                               ; preds = %2
  %20 = load ptr, ptr %6, align 8
  %21 = icmp ne ptr %20, null
  br i1 %21, label %22, label %44

22:                                               ; preds = %19
  %23 = load ptr, ptr %4, align 8
  %24 = load ptr, ptr %6, align 8
  %25 = getelementptr inbounds %struct._X11InputMethodData, ptr %24, i32 0, i32 4
  %26 = load ptr, ptr %25, align 8
  %27 = call i64 (ptr, ptr, ptr, ptr, ptr, ...) @JNU_CallMethodByName(ptr noundef %23, ptr noundef null, ptr noundef %26, ptr noundef @.str.11, ptr noundef @.str.12)
  %28 = getelementptr inbounds %union.jvalue, ptr %7, i32 0, i32 0
  store i64 %27, ptr %28, align 8
  br label %29

29:                                               ; preds = %22
  %30 = load ptr, ptr %4, align 8
  %31 = load ptr, ptr %30, align 8
  %32 = getelementptr inbounds %struct.JNINativeInterface_, ptr %31, i32 0, i32 228
  %33 = load ptr, ptr %32, align 8
  %34 = load ptr, ptr %4, align 8
  %35 = call zeroext i8 %33(ptr noundef %34)
  %36 = icmp ne i8 %35, 0
  br i1 %36, label %37, label %38

37:                                               ; preds = %29
  store ptr null, ptr %3, align 8
  br label %46

38:                                               ; preds = %29
  br label %39

39:                                               ; preds = %38
  %40 = load ptr, ptr %4, align 8
  %41 = load ptr, ptr %5, align 8
  call void @setX11InputMethodData(ptr noundef %40, ptr noundef %41, ptr noundef null)
  %42 = load ptr, ptr %4, align 8
  %43 = load ptr, ptr %6, align 8
  call void @freeX11InputMethodData(ptr noundef %42, ptr noundef %43)
  store ptr null, ptr %6, align 8
  br label %44

44:                                               ; preds = %39, %19, %2
  %45 = load ptr, ptr %6, align 8
  store ptr %45, ptr %3, align 8
  br label %46

46:                                               ; preds = %44, %37
  %47 = load ptr, ptr %3, align 8
  ret ptr %47
}

; Function Attrs: nounwind uwtable
define internal i32 @isX11InputMethodGRefInList(ptr noundef %0) #0 {
  %2 = alloca i32, align 4
  %3 = alloca ptr, align 8
  %4 = alloca ptr, align 8
  store ptr %0, ptr %3, align 8
  %5 = load ptr, ptr @x11InputMethodGRefListHead, align 8
  store ptr %5, ptr %4, align 8
  %6 = load ptr, ptr %3, align 8
  %7 = icmp eq ptr %6, null
  br i1 %7, label %8, label %9

8:                                                ; preds = %1
  store i32 0, ptr %2, align 4
  br label %25

9:                                                ; preds = %1
  br label %10

10:                                               ; preds = %20, %9
  %11 = load ptr, ptr %4, align 8
  %12 = icmp ne ptr %11, null
  br i1 %12, label %13, label %24

13:                                               ; preds = %10
  %14 = load ptr, ptr %4, align 8
  %15 = getelementptr inbounds %struct._X11InputMethodGRefNode, ptr %14, i32 0, i32 0
  %16 = load ptr, ptr %15, align 8
  %17 = load ptr, ptr %3, align 8
  %18 = icmp eq ptr %16, %17
  br i1 %18, label %19, label %20

19:                                               ; preds = %13
  store i32 1, ptr %2, align 4
  br label %25

20:                                               ; preds = %13
  %21 = load ptr, ptr %4, align 8
  %22 = getelementptr inbounds %struct._X11InputMethodGRefNode, ptr %21, i32 0, i32 1
  %23 = load ptr, ptr %22, align 8
  store ptr %23, ptr %4, align 8
  br label %10, !llvm.loop !6

24:                                               ; preds = %10
  store i32 0, ptr %2, align 4
  br label %25

25:                                               ; preds = %24, %19, %8
  %26 = load i32, ptr %2, align 4
  ret i32 %26
}

; Function Attrs: nounwind uwtable
define hidden signext i8 @awt_x11inputmethod_lookupString(ptr noundef %0, ptr noundef %1) #0 {
  %3 = alloca i8, align 1
  %4 = alloca ptr, align 8
  %5 = alloca ptr, align 8
  %6 = alloca ptr, align 8
  %7 = alloca ptr, align 8
  %8 = alloca i64, align 8
  %9 = alloca i32, align 4
  %10 = alloca i32, align 4
  %11 = alloca ptr, align 8
  %12 = alloca ptr, align 8
  %13 = alloca i8, align 1
  %14 = alloca %union.jvalue, align 8
  store ptr %0, ptr %4, align 8
  store ptr %1, ptr %5, align 8
  %15 = load ptr, ptr @jvm, align 8
  %16 = call ptr @JNU_GetEnv(ptr noundef %15, i32 noundef 65538)
  store ptr %16, ptr %6, align 8
  store ptr null, ptr %7, align 8
  store i64 0, ptr %8, align 8
  store i8 1, ptr %13, align 1
  %17 = load ptr, ptr @currentX11InputMethodInstance, align 8
  %18 = call i32 @isX11InputMethodGRefInList(ptr noundef %17)
  %19 = icmp ne i32 %18, 0
  br i1 %19, label %21, label %20

20:                                               ; preds = %2
  store ptr null, ptr @currentX11InputMethodInstance, align 8
  store i8 0, ptr %3, align 1
  br label %155

21:                                               ; preds = %2
  %22 = load ptr, ptr %6, align 8
  %23 = load ptr, ptr @currentX11InputMethodInstance, align 8
  %24 = call ptr @getX11InputMethodData(ptr noundef %22, ptr noundef %23)
  store ptr %24, ptr %7, align 8
  %25 = load ptr, ptr %7, align 8
  %26 = icmp eq ptr %25, null
  br i1 %26, label %27, label %28

27:                                               ; preds = %21
  store i8 0, ptr %3, align 1
  br label %155

28:                                               ; preds = %21
  %29 = load ptr, ptr %7, align 8
  %30 = getelementptr inbounds %struct._X11InputMethodData, ptr %29, i32 0, i32 0
  %31 = load ptr, ptr %30, align 8
  store ptr %31, ptr %12, align 8
  %32 = icmp eq ptr %31, null
  br i1 %32, label %33, label %34

33:                                               ; preds = %28
  store i8 0, ptr %3, align 1
  br label %155

34:                                               ; preds = %28
  %35 = load ptr, ptr %7, align 8
  %36 = getelementptr inbounds %struct._X11InputMethodData, ptr %35, i32 0, i32 7
  %37 = load i32, ptr %36, align 8
  %38 = icmp eq i32 %37, 0
  br i1 %38, label %39, label %54

39:                                               ; preds = %34
  %40 = call noalias ptr @malloc(i64 noundef 512) #7
  %41 = load ptr, ptr %7, align 8
  %42 = getelementptr inbounds %struct._X11InputMethodData, ptr %41, i32 0, i32 6
  store ptr %40, ptr %42, align 8
  %43 = load ptr, ptr %7, align 8
  %44 = getelementptr inbounds %struct._X11InputMethodData, ptr %43, i32 0, i32 6
  %45 = load ptr, ptr %44, align 8
  %46 = icmp eq ptr %45, null
  br i1 %46, label %47, label %51

47:                                               ; preds = %39
  %48 = load ptr, ptr @jvm, align 8
  %49 = call ptr @JNU_GetEnv(ptr noundef %48, i32 noundef 65538)
  call void @JNU_ThrowOutOfMemoryError(ptr noundef %49, ptr noundef null)
  %50 = load i8, ptr %13, align 1
  store i8 %50, ptr %3, align 1
  br label %155

51:                                               ; preds = %39
  %52 = load ptr, ptr %7, align 8
  %53 = getelementptr inbounds %struct._X11InputMethodData, ptr %52, i32 0, i32 7
  store i32 512, ptr %53, align 8
  br label %54

54:                                               ; preds = %51, %34
  %55 = load ptr, ptr %12, align 8
  %56 = load ptr, ptr %4, align 8
  %57 = load ptr, ptr %7, align 8
  %58 = getelementptr inbounds %struct._X11InputMethodData, ptr %57, i32 0, i32 6
  %59 = load ptr, ptr %58, align 8
  %60 = load ptr, ptr %7, align 8
  %61 = getelementptr inbounds %struct._X11InputMethodData, ptr %60, i32 0, i32 7
  %62 = load i32, ptr %61, align 8
  %63 = sub nsw i32 %62, 1
  %64 = call i32 @XmbLookupString(ptr noundef %55, ptr noundef %56, ptr noundef %59, i32 noundef %63, ptr noundef %8, ptr noundef %9)
  store i32 %64, ptr %10, align 4
  %65 = load i32, ptr %9, align 4
  %66 = icmp eq i32 %65, -1
  br i1 %66, label %67, label %102

67:                                               ; preds = %54
  %68 = load ptr, ptr %7, align 8
  %69 = getelementptr inbounds %struct._X11InputMethodData, ptr %68, i32 0, i32 6
  %70 = load ptr, ptr %69, align 8
  call void @free(ptr noundef %70) #6
  %71 = load ptr, ptr %7, align 8
  %72 = getelementptr inbounds %struct._X11InputMethodData, ptr %71, i32 0, i32 7
  store i32 0, ptr %72, align 8
  %73 = load i32, ptr %10, align 4
  %74 = add nsw i32 %73, 1
  %75 = sext i32 %74 to i64
  %76 = call noalias ptr @malloc(i64 noundef %75) #7
  %77 = load ptr, ptr %7, align 8
  %78 = getelementptr inbounds %struct._X11InputMethodData, ptr %77, i32 0, i32 6
  store ptr %76, ptr %78, align 8
  %79 = load ptr, ptr %7, align 8
  %80 = getelementptr inbounds %struct._X11InputMethodData, ptr %79, i32 0, i32 6
  %81 = load ptr, ptr %80, align 8
  %82 = icmp eq ptr %81, null
  br i1 %82, label %83, label %87

83:                                               ; preds = %67
  %84 = load ptr, ptr @jvm, align 8
  %85 = call ptr @JNU_GetEnv(ptr noundef %84, i32 noundef 65538)
  call void @JNU_ThrowOutOfMemoryError(ptr noundef %85, ptr noundef null)
  %86 = load i8, ptr %13, align 1
  store i8 %86, ptr %3, align 1
  br label %155

87:                                               ; preds = %67
  %88 = load i32, ptr %10, align 4
  %89 = add nsw i32 %88, 1
  %90 = load ptr, ptr %7, align 8
  %91 = getelementptr inbounds %struct._X11InputMethodData, ptr %90, i32 0, i32 7
  store i32 %89, ptr %91, align 8
  %92 = load ptr, ptr %12, align 8
  %93 = load ptr, ptr %4, align 8
  %94 = load ptr, ptr %7, align 8
  %95 = getelementptr inbounds %struct._X11InputMethodData, ptr %94, i32 0, i32 6
  %96 = load ptr, ptr %95, align 8
  %97 = load ptr, ptr %7, align 8
  %98 = getelementptr inbounds %struct._X11InputMethodData, ptr %97, i32 0, i32 7
  %99 = load i32, ptr %98, align 8
  %100 = sub nsw i32 %99, 1
  %101 = call i32 @XmbLookupString(ptr noundef %92, ptr noundef %93, ptr noundef %96, i32 noundef %100, ptr noundef %8, ptr noundef %9)
  store i32 %101, ptr %10, align 4
  br label %102

102:                                              ; preds = %87, %54
  %103 = load ptr, ptr %7, align 8
  %104 = getelementptr inbounds %struct._X11InputMethodData, ptr %103, i32 0, i32 6
  %105 = load ptr, ptr %104, align 8
  %106 = load i32, ptr %10, align 4
  %107 = sext i32 %106 to i64
  %108 = getelementptr inbounds i8, ptr %105, i64 %107
  store i8 0, ptr %108, align 1
  %109 = load i32, ptr %9, align 4
  switch i32 %109, label %153 [
    i32 4, label %110
    i32 2, label %123
    i32 3, label %141
    i32 1, label %152
  ]

110:                                              ; preds = %102
  %111 = load i8, ptr @awt_x11inputmethod_lookupString.composing, align 1
  %112 = icmp ne i8 %111, 0
  br i1 %112, label %122, label %113

113:                                              ; preds = %110
  %114 = load ptr, ptr %4, align 8
  %115 = getelementptr inbounds %struct.XKeyEvent, ptr %114, i32 0, i32 13
  %116 = load i32, ptr %115, align 4
  %117 = icmp ne i32 %116, 0
  br i1 %117, label %118, label %121

118:                                              ; preds = %113
  %119 = load i64, ptr %8, align 8
  %120 = load ptr, ptr %5, align 8
  store i64 %119, ptr %120, align 8
  store i8 0, ptr %13, align 1
  br label %153

121:                                              ; preds = %113
  br label %122

122:                                              ; preds = %121, %110
  store i8 0, ptr @awt_x11inputmethod_lookupString.composing, align 1
  br label %123

123:                                              ; preds = %122, %102
  %124 = load ptr, ptr %6, align 8
  %125 = load ptr, ptr %7, align 8
  %126 = getelementptr inbounds %struct._X11InputMethodData, ptr %125, i32 0, i32 6
  %127 = load ptr, ptr %126, align 8
  %128 = call ptr @JNU_NewStringPlatform(ptr noundef %124, ptr noundef %127)
  store ptr %128, ptr %11, align 8
  %129 = load ptr, ptr %11, align 8
  %130 = icmp ne ptr %129, null
  br i1 %130, label %131, label %140

131:                                              ; preds = %123
  %132 = load ptr, ptr %6, align 8
  %133 = load ptr, ptr @currentX11InputMethodInstance, align 8
  %134 = load ptr, ptr %11, align 8
  %135 = load ptr, ptr %4, align 8
  %136 = getelementptr inbounds %struct.XKeyEvent, ptr %135, i32 0, i32 7
  %137 = load i64, ptr %136, align 8
  %138 = call i64 (ptr, ptr, ptr, ptr, ptr, ...) @JNU_CallMethodByName(ptr noundef %132, ptr noundef null, ptr noundef %133, ptr noundef @.str, ptr noundef @.str.1, ptr noundef %134, i64 noundef %137)
  %139 = getelementptr inbounds %union.jvalue, ptr %14, i32 0, i32 0
  store i64 %138, ptr %139, align 8
  br label %140

140:                                              ; preds = %131, %123
  br label %153

141:                                              ; preds = %102
  %142 = load i64, ptr %8, align 8
  %143 = icmp eq i64 %142, 65312
  br i1 %143, label %144, label %145

144:                                              ; preds = %141
  store i8 1, ptr @awt_x11inputmethod_lookupString.composing, align 1
  br label %145

145:                                              ; preds = %144, %141
  %146 = load i8, ptr @awt_x11inputmethod_lookupString.composing, align 1
  %147 = icmp ne i8 %146, 0
  br i1 %147, label %151, label %148

148:                                              ; preds = %145
  %149 = load i64, ptr %8, align 8
  %150 = load ptr, ptr %5, align 8
  store i64 %149, ptr %150, align 8
  store i8 0, ptr %13, align 1
  br label %151

151:                                              ; preds = %148, %145
  br label %153

152:                                              ; preds = %102
  br label %153

153:                                              ; preds = %152, %151, %140, %118, %102
  %154 = load i8, ptr %13, align 1
  store i8 %154, ptr %3, align 1
  br label %155

155:                                              ; preds = %153, %83, %47, %33, %27, %20
  %156 = load i8, ptr %3, align 1
  ret i8 %156
}