; Function Attrs: nounwind uwtable
define hidden signext range(i8 0, 2) i8 @awt_x11inputmethod_lookupString(ptr noundef %0, ptr nocapture noundef writeonly %1) local_unnamed_addr #2 {
  %3 = alloca i64, align 8
  %4 = alloca i32, align 4
  %5 = load ptr, ptr @jvm, align 8
  %6 = tail call ptr @JNU_GetEnv(ptr noundef %5, i32 noundef 65538) #14
  store i64 0, ptr %3, align 8
  %7 = load ptr, ptr @currentX11InputMethodInstance, align 8
  %8 = icmp eq ptr %7, null
  %.06.i = load ptr, ptr @x11InputMethodGRefListHead, align 8
  %.not7.i = icmp eq ptr %.06.i, null
  %or.cond.i = select i1 %8, i1 true, i1 %.not7.i
  br i1 %or.cond.i, label %.loopexit, label %.lr.ph.i

9:                                                ; preds = %.lr.ph.i
  %10 = getelementptr inbounds i8, ptr %.08.i, i64 8
  %.0.i = load ptr, ptr %10, align 8
  %.not.i = icmp eq ptr %.0.i, null
  br i1 %.not.i, label %.loopexit, label %.lr.ph.i, !llvm.loop !6

.lr.ph.i:                                         ; preds = %2, %9
  %.08.i = phi ptr [ %.0.i, %9 ], [ %.06.i, %2 ]
  %11 = load ptr, ptr %.08.i, align 8
  %12 = icmp eq ptr %11, %7
  br i1 %12, label %isX11InputMethodGRefInList.exit, label %9

.loopexit:                                        ; preds = %9, %2
  store ptr null, ptr @currentX11InputMethodInstance, align 8
  br label %getX11InputMethodData.exit.thread

isX11InputMethodGRefInList.exit:                  ; preds = %.lr.ph.i
  %13 = load ptr, ptr %6, align 8
  %14 = getelementptr inbounds i8, ptr %13, i64 808
  %15 = load ptr, ptr %14, align 8
  %16 = load ptr, ptr @x11InputMethodIDs, align 8
  %17 = tail call i64 %15(ptr noundef nonnull %6, ptr noundef %7, ptr noundef %16) #14
  %18 = inttoptr i64 %17 to ptr
  %19 = load ptr, ptr @X11im, align 8
  %20 = icmp eq ptr %19, null
  %21 = icmp ne i64 %17, 0
  %or.cond.i44 = select i1 %20, i1 %21, i1 false
  br i1 %or.cond.i44, label %22, label %getX11InputMethodData.exit

22:                                               ; preds = %isX11InputMethodGRefInList.exit
  %23 = getelementptr inbounds i8, ptr %18, i64 32
  %24 = load ptr, ptr %23, align 8
  %25 = tail call i64 (ptr, ptr, ptr, ptr, ptr, ...) @JNU_CallMethodByName(ptr noundef nonnull %6, ptr noundef null, ptr noundef %24, ptr noundef nonnull @.str.11, ptr noundef nonnull @.str.12) #14
  %26 = load ptr, ptr %6, align 8
  %27 = getelementptr inbounds i8, ptr %26, i64 1824
  %28 = load ptr, ptr %27, align 8
  %29 = tail call zeroext i8 %28(ptr noundef nonnull %6) #14
  %.not.i46 = icmp eq i8 %29, 0
  br i1 %.not.i46, label %30, label %getX11InputMethodData.exit.thread

30:                                               ; preds = %22
  %31 = load ptr, ptr %6, align 8
  %32 = getelementptr inbounds i8, ptr %31, i64 880
  %33 = load ptr, ptr %32, align 8
  %34 = load ptr, ptr @x11InputMethodIDs, align 8
  tail call void %33(ptr noundef nonnull %6, ptr noundef %7, ptr noundef %34, i64 noundef 0) #14
  tail call fastcc void @freeX11InputMethodData(ptr noundef nonnull %6, ptr noundef nonnull %18)
  br label %getX11InputMethodData.exit.thread

getX11InputMethodData.exit:                       ; preds = %isX11InputMethodGRefInList.exit
  %35 = icmp eq i64 %17, 0
  br i1 %35, label %getX11InputMethodData.exit.thread, label %36

36:                                               ; preds = %getX11InputMethodData.exit
  %37 = load ptr, ptr %18, align 8
  %38 = icmp eq ptr %37, null
  br i1 %38, label %getX11InputMethodData.exit.thread, label %39

39:                                               ; preds = %36
  %40 = getelementptr inbounds i8, ptr %18, i64 56
  %41 = load i32, ptr %40, align 8
  %42 = icmp eq i32 %41, 0
  br i1 %42, label %44, label %._crit_edge

._crit_edge:                                      ; preds = %39
  %.phi.trans.insert = getelementptr inbounds i8, ptr %18, i64 48
  %.pre = load ptr, ptr %.phi.trans.insert, align 8
  %43 = add nsw i32 %41, -1
  br label %52

44:                                               ; preds = %39
  %45 = tail call noalias dereferenceable_or_null(512) ptr @malloc(i64 noundef 512) #15
  %46 = getelementptr inbounds i8, ptr %18, i64 48
  store ptr %45, ptr %46, align 8
  %47 = icmp eq ptr %45, null
  br i1 %47, label %48, label %51

48:                                               ; preds = %44
  %49 = load ptr, ptr @jvm, align 8
  %50 = tail call ptr @JNU_GetEnv(ptr noundef %49, i32 noundef 65538) #14
  tail call void @JNU_ThrowOutOfMemoryError(ptr noundef %50, ptr noundef null) #14
  br label %getX11InputMethodData.exit.thread

51:                                               ; preds = %44
  store i32 512, ptr %40, align 8
  br label %52

52:                                               ; preds = %._crit_edge, %51
  %53 = phi i32 [ %43, %._crit_edge ], [ 511, %51 ]
  %54 = phi ptr [ %.pre, %._crit_edge ], [ %45, %51 ]
  %55 = getelementptr inbounds i8, ptr %18, i64 48
  %56 = call i32 @XmbLookupString(ptr noundef nonnull %37, ptr noundef %0, ptr noundef %54, i32 noundef %53, ptr noundef nonnull %3, ptr noundef nonnull %4) #14
  %57 = load i32, ptr %4, align 4
  %58 = icmp eq i32 %57, -1
  br i1 %58, label %59, label %70

59:                                               ; preds = %52
  %60 = load ptr, ptr %55, align 8
  call void @free(ptr noundef %60) #14
  store i32 0, ptr %40, align 8
  %61 = add nsw i32 %56, 1
  %62 = sext i32 %61 to i64
  %63 = call noalias ptr @malloc(i64 noundef %62) #15
  store ptr %63, ptr %55, align 8
  %64 = icmp eq ptr %63, null
  br i1 %64, label %65, label %68

65:                                               ; preds = %59
  %66 = load ptr, ptr @jvm, align 8
  %67 = call ptr @JNU_GetEnv(ptr noundef %66, i32 noundef 65538) #14
  call void @JNU_ThrowOutOfMemoryError(ptr noundef %67, ptr noundef null) #14
  br label %getX11InputMethodData.exit.thread

68:                                               ; preds = %59
  store i32 %61, ptr %40, align 8
  %69 = call i32 @XmbLookupString(ptr noundef nonnull %37, ptr noundef %0, ptr noundef nonnull %63, i32 noundef %56, ptr noundef nonnull %3, ptr noundef nonnull %4) #14
  br label %70

70:                                               ; preds = %68, %52
  %.037 = phi i32 [ %69, %68 ], [ %56, %52 ]
  %71 = load ptr, ptr %55, align 8
  %72 = sext i32 %.037 to i64
  %73 = getelementptr inbounds i8, ptr %71, i64 %72
  store i8 0, ptr %73, align 1
  %74 = load i32, ptr %4, align 4
  switch i32 %74, label %getX11InputMethodData.exit.thread [
    i32 4, label %75
    i32 2, label %82
    i32 3, label %90
  ]

75:                                               ; preds = %70
  %.b41 = load i1, ptr @awt_x11inputmethod_lookupString.composing, align 1
  br i1 %.b41, label %81, label %76

76:                                               ; preds = %75
  %77 = getelementptr inbounds i8, ptr %0, i64 84
  %78 = load i32, ptr %77, align 4
  %.not42 = icmp eq i32 %78, 0
  br i1 %.not42, label %81, label %79

79:                                               ; preds = %76
  %80 = load i64, ptr %3, align 8
  store i64 %80, ptr %1, align 8
  br label %getX11InputMethodData.exit.thread

81:                                               ; preds = %76, %75
  store i1 false, ptr @awt_x11inputmethod_lookupString.composing, align 1
  br label %82

82:                                               ; preds = %81, %70
  %83 = load ptr, ptr %55, align 8
  %84 = call ptr @JNU_NewStringPlatform(ptr noundef nonnull %6, ptr noundef %83) #14
  %.not43 = icmp eq ptr %84, null
  br i1 %.not43, label %getX11InputMethodData.exit.thread, label %85

85:                                               ; preds = %82
  %86 = load ptr, ptr @currentX11InputMethodInstance, align 8
  %87 = getelementptr inbounds i8, ptr %0, i64 56
  %88 = load i64, ptr %87, align 8
  %89 = call i64 (ptr, ptr, ptr, ptr, ptr, ...) @JNU_CallMethodByName(ptr noundef nonnull %6, ptr noundef null, ptr noundef %86, ptr noundef nonnull @.str, ptr noundef nonnull @.str.1, ptr noundef nonnull %84, i64 noundef %88) #14
  br label %getX11InputMethodData.exit.thread

90:                                               ; preds = %70
  %91 = load i64, ptr %3, align 8
  %92 = icmp eq i64 %91, 65312
  br i1 %92, label %.thread, label %93

.thread:                                          ; preds = %90
  store i1 true, ptr @awt_x11inputmethod_lookupString.composing, align 1
  br label %getX11InputMethodData.exit.thread

93:                                               ; preds = %90
  %.b.pr = load i1, ptr @awt_x11inputmethod_lookupString.composing, align 1
  br i1 %.b.pr, label %getX11InputMethodData.exit.thread, label %94

94:                                               ; preds = %93
  store i64 %91, ptr %1, align 8
  br label %getX11InputMethodData.exit.thread

getX11InputMethodData.exit.thread:                ; preds = %30, %22, %.thread, %70, %79, %85, %82, %94, %93, %36, %getX11InputMethodData.exit, %65, %48, %.loopexit
  %.0 = phi i8 [ 1, %48 ], [ 1, %65 ], [ 0, %.loopexit ], [ 0, %getX11InputMethodData.exit ], [ 0, %36 ], [ 1, %70 ], [ 1, %93 ], [ 0, %94 ], [ 1, %85 ], [ 1, %82 ], [ 0, %79 ], [ 1, %.thread ], [ 0, %22 ], [ 0, %30 ]
  ret i8 %.0
}